target datalayout = "e-m:e-p270:32:32-p271:32:32-p272:64:64-i64:64-i128:128-f80:128-n8:16:32:64-S128"
target triple = "x86_64-unknown-linux-gnu"

%"class.grpc_core::promise_filter_detail::BaseCallData" = type { %"class.grpc_core::Activity", %"class.grpc_core::Wakeable", ptr, ptr, ptr, ptr, %"class.grpc_core::Timestamp", %"class.grpc_core::CallFinalization", ptr, ptr, %"struct.std::atomic", ptr, ptr, ptr, ptr }
%"class.grpc_core::Activity" = type { %"class.grpc_core::Orphanable" }
%"class.grpc_core::Orphanable" = type { ptr }
%"class.grpc_core::Wakeable" = type { ptr }
%"class.grpc_core::Timestamp" = type { i64 }
%"class.grpc_core::CallFinalization" = type { ptr }
%"struct.std::atomic" = type { %"struct.std::__atomic_base" }
%"struct.std::__atomic_base" = type { ptr }
%struct.grpc_closure = type { %union.anon, ptr, ptr, %union.anon.9 }
%union.anon = type { ptr }
%union.anon.9 = type { i64 }
%"class.absl::lts_20230802::Status" = type { i64 }
%"class.grpc_core::promise_filter_detail::BaseCallData::CapturedBatch" = type { ptr }
%"class.grpc_core::ArenaPromise" = type { %"struct.grpc_core::arena_promise_detail::VtableAndArg" }
%"struct.grpc_core::arena_promise_detail::VtableAndArg" = type { ptr, [8 x i8], %"struct.grpc_core::arena_promise_detail::ArgType" }
%"struct.grpc_core::arena_promise_detail::ArgType" = type { [8 x i8], [8 x i8] }
%"class.grpc_core::ManualConstructor.289" = type { [8 x i8] }
%"class.grpc_core::promise_filter_detail::ServerCallData" = type <{ %"class.grpc_core::promise_filter_detail::BaseCallData", [8 x i8], %"class.grpc_core::ArenaPromise", ptr, ptr, ptr, ptr, %struct.grpc_closure, ptr, %struct.grpc_closure, %"class.absl::lts_20230802::Status", %"class.grpc_core::promise_filter_detail::BaseCallData::CapturedBatch", i32, i32, ptr, i8, [7 x i8] }>
%"class.grpc_core::promise_filter_detail::ServerCallData::PollContext" = type <{ %"class.grpc_core::ManualConstructor.289", ptr, ptr, i8, i8, [6 x i8] }>

@.str.5 = private unnamed_addr constant [132 x i8] c"generated/home/dtcxzyw/WorkSpace/Projects/compilers/llvm-opt-benchmark/bench/grpc/grpc/src/core/lib/channel/promise_based_filter.cc\00", align 1
@.str.70 = private unnamed_addr constant [21 x i8] c"poll_ctx_ != nullptr\00", align 1

; Function Attrs: mustprogress nounwind uwtable
define linkonce_odr void @_ZN9grpc_core21promise_filter_detail14ServerCallData11PollContext6RepollEv(ptr noundef nonnull align 8 dereferenceable(26) %this) #5 comdat align 2 {
entry:
  %this.addr = alloca ptr, align 8
  store ptr %this, ptr %this.addr, align 8
  %this1 = load ptr, ptr %this.addr, align 8
  %repoll_ = getelementptr inbounds %"class.grpc_core::promise_filter_detail::ServerCallData::PollContext", ptr %this1, i32 0, i32 3
  store i8 1, ptr %repoll_, align 8
  ret void
}

; Function Attrs: mustprogress uwtable
define void @_ZN9grpc_core21promise_filter_detail14ServerCallData20ForceImmediateRepollEt(ptr noundef nonnull align 16 dereferenceable(297) %this, i16 noundef zeroext %0) unnamed_addr #4 align 2 {
entry:
  %this.addr = alloca ptr, align 8
  %.addr = alloca i16, align 2
  store ptr %this, ptr %this.addr, align 8
  store i16 %0, ptr %.addr, align 2
  %this1 = load ptr, ptr %this.addr, align 8
  br label %do.body

do.body:                                          ; preds = %entry
  %poll_ctx_ = getelementptr inbounds %"class.grpc_core::promise_filter_detail::ServerCallData", ptr %this1, i32 0, i32 14
  %1 = load ptr, ptr %poll_ctx_, align 16
  %cmp = icmp ne ptr %1, null
  %lnot = xor i1 %cmp, true
  br i1 %lnot, label %if.then, label %if.end

if.then:                                          ; preds = %do.body
  call void @gpr_assertion_failed(ptr noundef @.str.5, i32 noundef 2029, ptr noundef @.str.70) #17
  unreachable

if.end:                                           ; preds = %do.body
  br label %do.end

do.end:                                           ; preds = %if.end
  %poll_ctx_2 = getelementptr inbounds %"class.grpc_core::promise_filter_detail::ServerCallData", ptr %this1, i32 0, i32 14
  %2 = load ptr, ptr %poll_ctx_2, align 16
  call void @_ZN9grpc_core21promise_filter_detail14ServerCallData11PollContext6RepollEv(ptr noundef nonnull align 8 dereferenceable(26) %2)
  ret void
}